target datalayout = "e-m:e-p270:32:32-p271:32:32-p272:64:64-i64:64-i128:128-f80:128-n8:16:32:64-S128"
target triple = "x86_64-pc-linux-gnu"

%class.Probabilities = type { %"class.std::map", %"class.std::map.0", %"class.std::map.8", %"class.std::map.13", %"class.std::map.18", %"class.std::map.18" }
%"class.std::map" = type { %"class.std::_Rb_tree" }
%"class.std::_Rb_tree" = type { %"struct.std::_Rb_tree<std::__cxx11::basic_string<char>, std::pair<const std::__cxx11::basic_string<char>, ProbName>, std::_Select1st<std::pair<const std::__cxx11::basic_string<char>, ProbName>>, std::less<std::__cxx11::basic_string<char>>>::_Rb_tree_impl" }
%"struct.std::_Rb_tree<std::__cxx11::basic_string<char>, std::pair<const std::__cxx11::basic_string<char>, ProbName>, std::_Select1st<std::pair<const std::__cxx11::basic_string<char>, ProbName>>, std::less<std::__cxx11::basic_string<char>>>::_Rb_tree_impl" = type { %"struct.std::_Rb_tree_key_compare", %"struct.std::_Rb_tree_header" }
%"struct.std::_Rb_tree_key_compare" = type { %"struct.std::less" }
%"struct.std::less" = type { i8 }
%"struct.std::_Rb_tree_header" = type { %"struct.std::_Rb_tree_node_base", i64 }
%"struct.std::_Rb_tree_node_base" = type { i32, ptr, ptr, ptr }
%"class.std::map.0" = type { %"class.std::_Rb_tree.1" }
%"class.std::_Rb_tree.1" = type { %"struct.std::_Rb_tree<ProbName, std::pair<const ProbName, std::__cxx11::basic_string<char>>, std::_Select1st<std::pair<const ProbName, std::__cxx11::basic_string<char>>>, std::less<ProbName>>::_Rb_tree_impl" }
%"struct.std::_Rb_tree<ProbName, std::pair<const ProbName, std::__cxx11::basic_string<char>>, std::_Select1st<std::pair<const ProbName, std::__cxx11::basic_string<char>>>, std::less<ProbName>>::_Rb_tree_impl" = type { %"struct.std::_Rb_tree_key_compare.5", %"struct.std::_Rb_tree_header" }
%"struct.std::_Rb_tree_key_compare.5" = type { %"struct.std::less.6" }
%"struct.std::less.6" = type { i8 }
%"class.std::map.8" = type { %"class.std::_Rb_tree.9" }
%"class.std::_Rb_tree.9" = type { %"struct.std::_Rb_tree<ProbName, std::pair<const ProbName, unsigned int>, std::_Select1st<std::pair<const ProbName, unsigned int>>, std::less<ProbName>>::_Rb_tree_impl" }
%"struct.std::_Rb_tree<ProbName, std::pair<const ProbName, unsigned int>, std::_Select1st<std::pair<const ProbName, unsigned int>>, std::less<ProbName>>::_Rb_tree_impl" = type { %"struct.std::_Rb_tree_key_compare.5", %"struct.std::_Rb_tree_header" }
%"class.std::map.13" = type { %"class.std::_Rb_tree.14" }
%"class.std::_Rb_tree.14" = type { %"struct.std::_Rb_tree<ProbName, std::pair<const ProbName, ProbElem *>, std::_Select1st<std::pair<const ProbName, ProbElem *>>, std::less<ProbName>>::_Rb_tree_impl" }
%"struct.std::_Rb_tree<ProbName, std::pair<const ProbName, ProbElem *>, std::_Select1st<std::pair<const ProbName, ProbElem *>>, std::less<ProbName>>::_Rb_tree_impl" = type { %"struct.std::_Rb_tree_key_compare.5", %"struct.std::_Rb_tree_header" }
%"class.std::map.18" = type { %"class.std::_Rb_tree.19" }
%"class.std::_Rb_tree.19" = type { %"struct.std::_Rb_tree<ProbName, std::pair<const ProbName, Filter *>, std::_Select1st<std::pair<const ProbName, Filter *>>, std::less<ProbName>>::_Rb_tree_impl" }
%"struct.std::_Rb_tree<ProbName, std::pair<const ProbName, Filter *>, std::_Select1st<std::pair<const ProbName, Filter *>>, std::less<ProbName>>::_Rb_tree_impl" = type { %"struct.std::_Rb_tree_key_compare.5", %"struct.std::_Rb_tree_header" }

@_ZN17ProbabilityFilterC1E8ProbName = dso_local unnamed_addr alias void (ptr, i32), ptr @_ZN17ProbabilityFilterC2E8ProbName

; Function Attrs: mustprogress uwtable
define dso_local void @_ZN13Probabilities15set_prob_filterE8ProbName(ptr noundef nonnull align 8 dereferenceable(288) %0, i32 noundef %1) #4 align 2 personality ptr @__gxx_personality_v0 {
  %3 = alloca ptr, align 8
  %4 = alloca i32, align 4
  %5 = alloca ptr, align 8
  %6 = alloca i32, align 4
  store ptr %0, ptr %3, align 8
  store i32 %1, ptr %4, align 4
  %7 = load ptr, ptr %3, align 8
  %8 = call noalias noundef nonnull ptr @_Znwm(i64 noundef 24) #15
  %9 = load i32, ptr %4, align 4
  invoke void @_ZN17ProbabilityFilterC1E8ProbName(ptr noundef nonnull align 8 dereferenceable(20) %8, i32 noundef %9)
          to label %10 unwind label %13

10:                                               ; preds = %2
  %11 = getelementptr inbounds %class.Probabilities, ptr %7, i32 0, i32 4
  %12 = call noundef nonnull align 8 dereferenceable(8) ptr @_ZNSt3mapI8ProbNameP6FilterSt4lessIS0_ESaISt4pairIKS0_S2_EEEixERS6_(ptr noundef nonnull align 8 dereferenceable(48) %11, ptr noundef nonnull align 4 dereferenceable(4) %4)
  store ptr %8, ptr %12, align 8
  ret void

13:                                               ; preds = %2
  %14 = landingpad { ptr, i32 }
          cleanup
  %15 = extractvalue { ptr, i32 } %14, 0
  store ptr %15, ptr %5, align 8
  %16 = extractvalue { ptr, i32 } %14, 1
  store i32 %16, ptr %6, align 4
  call void @_ZdlPv(ptr noundef %8) #14
  br label %17

17:                                               ; preds = %13
  %18 = load ptr, ptr %5, align 8
  %19 = load i32, ptr %6, align 4
  %20 = insertvalue { ptr, i32 } poison, ptr %18, 0
  %21 = insertvalue { ptr, i32 } %20, i32 %19, 1
  resume { ptr, i32 } %21
}