; Function Attrs: mustprogress uwtable
define dso_local void @_ZN13Probabilities15set_prob_filterE8ProbName(ptr noundef nonnull align 8 dereferenceable(288) %0, i32 noundef %1) local_unnamed_addr #3 align 2 personality ptr @__gxx_personality_v0 {
  %3 = alloca i32, align 4
  store i32 %1, ptr %3, align 4
  %4 = tail call noalias noundef nonnull dereferenceable(24) ptr @_Znwm(i64 noundef 24) #25
  invoke void @_ZN6FilterC2Ev(ptr noundef nonnull align 8 dereferenceable(16) %4)
          to label %5 unwind label %9

5:                                                ; preds = %2
  store ptr getelementptr inbounds ({ [5 x ptr] }, ptr @_ZTV17ProbabilityFilter, i64 0, i32 0, i64 2), ptr %4, align 8
  %6 = getelementptr inbounds i8, ptr %4, i64 16
  store i32 %1, ptr %6, align 8
  %7 = getelementptr inbounds i8, ptr %0, i64 192
  %8 = call noundef nonnull align 8 dereferenceable(8) ptr @_ZNSt3mapI8ProbNameP6FilterSt4lessIS0_ESaISt4pairIKS0_S2_EEEixERS6_(ptr noundef nonnull align 8 dereferenceable(48) %7, ptr noundef nonnull align 4 dereferenceable(4) %3)
  store ptr %4, ptr %8, align 8
  ret void

9:                                                ; preds = %2
  %10 = landingpad { ptr, i32 }
          cleanup
  tail call void @_ZdlPv(ptr noundef nonnull %4) #23
  resume { ptr, i32 } %10
}